; Function Attrs: mustprogress nofree norecurse nosync nounwind willreturn memory(argmem: read) uwtable
define noundef range(i64 -576460752303423488, 576460752303423488) i64 @_ZNK8QuantLib32LongstaffSchwartzMultiPathPricer8PathInfo10pathLengthEv(ptr nocapture noundef nonnull readonly align 8 dereferenceable(56) %this) local_unnamed_addr #8 align 2 {
entry:
  %states = getelementptr inbounds nuw i8, ptr %this, i64 32
  %_M_finish.i = getelementptr inbounds nuw i8, ptr %this, i64 40
  %0 = load ptr, ptr %_M_finish.i, align 8, !tbaa !31
  %1 = load ptr, ptr %states, align 8, !tbaa !29
  %sub.ptr.lhs.cast.i = ptrtoint ptr %0 to i64
  %sub.ptr.rhs.cast.i = ptrtoint ptr %1 to i64
  %sub.ptr.sub.i = sub i64 %sub.ptr.lhs.cast.i, %sub.ptr.rhs.cast.i
  %sub.ptr.div.i = ashr exact i64 %sub.ptr.sub.i, 4
  ret i64 %sub.ptr.div.i
}